; Function Attrs: nounwind uwtable
define ptr @l_Lake_PConfigDecl_opaqueTargetConfig_x3f___rarg(ptr noundef readonly captures(none) %0) local_unnamed_addr #0 {
  %2 = getelementptr inbounds nuw i8, ptr %0, i64 24
  %3 = load ptr, ptr %2, align 8, !tbaa !4
  %4 = tail call zeroext i8 @l_Lean_Name_isAnonymous(ptr noundef %3) #5
  %5 = icmp eq i8 %4, 0
  br i1 %5, label %22, label %6

6:                                                ; preds = %1
  %7 = getelementptr inbounds nuw i8, ptr %0, i64 32
  %8 = load ptr, ptr %7, align 8, !tbaa !4
  %9 = ptrtoint ptr %8 to i64
  %10 = and i64 %9, 1
  %.not = icmp eq i64 %10, 0
  br i1 %.not, label %11, label %lean_inc.exit

11:                                               ; preds = %6
  %.val.i = load i32, ptr %8, align 4, !tbaa !8
  %12 = icmp sgt i32 %.val.i, 0
  br i1 %12, label %13, label %15, !prof !11

13:                                               ; preds = %11
  %14 = add nuw i32 %.val.i, 1
  store i32 %14, ptr %8, align 4, !tbaa !8
  br label %lean_inc.exit

15:                                               ; preds = %11
  %.not.i = icmp eq i32 %.val.i, 0
  br i1 %.not.i, label %lean_inc.exit, label %16

16:                                               ; preds = %15
  tail call void @lean_inc_ref_cold(ptr noundef nonnull %8) #5
  br label %lean_inc.exit

lean_inc.exit:                                    ; preds = %16, %15, %13, %6
  tail call void @lean_inc_heartbeat() #5
  %17 = tail call noalias ptr @mi_malloc_small(i64 noundef 16) #5
  %18 = icmp eq ptr %17, null
  br i1 %18, label %19, label %lean_alloc_ctor.exit

19:                                               ; preds = %lean_inc.exit
  tail call void @lean_internal_panic_out_of_memory() #6
  unreachable

lean_alloc_ctor.exit:                             ; preds = %lean_inc.exit
  %20 = getelementptr inbounds nuw i8, ptr %17, i64 4
  store i32 1, ptr %17, align 4, !tbaa !8
  store i32 16842768, ptr %20, align 4
  %21 = getelementptr inbounds nuw i8, ptr %17, i64 8
  store ptr %8, ptr %21, align 8, !tbaa !4
  br label %22

22:                                               ; preds = %1, %lean_alloc_ctor.exit
  %.0 = phi ptr [ %17, %lean_alloc_ctor.exit ], [ inttoptr (i64 1 to ptr), %1 ]
  ret ptr %.0
}